; Function Attrs: mustprogress nofree nounwind willreturn memory(read) uwtable
define noundef double @_ZNK5osgeo4proj11coordinates18CoordinateMetadata28coordinateEpochAsDecimalYearEv(ptr nocapture noundef nonnull readonly align 8 dereferenceable(40) %0) local_unnamed_addr #7 align 2 personality ptr @__gxx_personality_v0 {
  %2 = getelementptr inbounds i8, ptr %0, i64 32
  %3 = load ptr, ptr %2, align 8
  %4 = getelementptr inbounds i8, ptr %3, i64 16
  %5 = load i8, ptr %4, align 8
  %6 = trunc i8 %5 to i1
  br i1 %6, label %7, label %13

7:                                                ; preds = %1
  %8 = getelementptr inbounds i8, ptr %3, i64 24
  %9 = invoke noundef nonnull align 8 dereferenceable(24) ptr @_ZNK5osgeo4proj6common9DataEpoch15coordinateEpochEv(ptr noundef nonnull align 8 dereferenceable(8) %8)
          to label %10 unwind label %14

10:                                               ; preds = %7
  %11 = tail call noundef double @_ZNK5osgeo4proj6common7Measure13convertToUnitERKNS1_13UnitOfMeasureE(ptr noundef nonnull align 8 dereferenceable(24) %9, ptr noundef nonnull align 8 dereferenceable(24) @_ZN5osgeo4proj6common13UnitOfMeasure4YEARE) #20
  %12 = invoke noundef double @_ZN5osgeo4proj8internal28getRoundedEpochInDecimalYearEd(double noundef %11)
          to label %13 unwind label %14

13:                                               ; preds = %1, %10
  %.0 = phi double [ %12, %10 ], [ 0x7FF8000000000000, %1 ]
  ret double %.0

14:                                               ; preds = %10, %7
  %15 = landingpad { ptr, i32 }
          catch ptr null
  %16 = extractvalue { ptr, i32 } %15, 0
  tail call void @__clang_call_terminate(ptr %16) #19
  unreachable
}